target datalayout = "e-m:e-p270:32:32-p271:32:32-p272:64:64-i64:64-i128:128-f80:128-n8:16:32:64-S128"
target triple = "x86_64-unknown-linux-gnu"

%"class.std::chrono::duration" = type { i64 }
%"class.proxygen::SessionPool" = type { %"class.proxygen::SessionHolder::Callback", ptr, i32, %"class.std::chrono::duration", %"class.std::chrono::duration", %"class.boost::intrusive::list", %"class.boost::intrusive::list", %"class.boost::intrusive::list", ptr, ptr, ptr }
%"class.proxygen::SessionHolder::Callback" = type { ptr }
%"class.boost::intrusive::list" = type { %"class.boost::intrusive::list_impl" }
%"class.boost::intrusive::list_impl" = type { %"struct.boost::intrusive::list_impl<boost::intrusive::mhtraits<proxygen::SessionHolder, boost::intrusive::list_member_hook<boost::intrusive::link_mode<boost::intrusive::safe_link>>, &proxygen::SessionHolder::listHook>, unsigned long, true, void>::data_t" }
%"struct.boost::intrusive::list_impl<boost::intrusive::mhtraits<proxygen::SessionHolder, boost::intrusive::list_member_hook<boost::intrusive::link_mode<boost::intrusive::safe_link>>, &proxygen::SessionHolder::listHook>, unsigned long, true, void>::data_t" = type { %"struct.boost::intrusive::list_impl<boost::intrusive::mhtraits<proxygen::SessionHolder, boost::intrusive::list_member_hook<boost::intrusive::link_mode<boost::intrusive::safe_link>>, &proxygen::SessionHolder::listHook>, unsigned long, true, void>::root_plus_size" }
%"struct.boost::intrusive::list_impl<boost::intrusive::mhtraits<proxygen::SessionHolder, boost::intrusive::list_member_hook<boost::intrusive::link_mode<boost::intrusive::safe_link>>, &proxygen::SessionHolder::listHook>, unsigned long, true, void>::root_plus_size" = type { %"struct.boost::intrusive::detail::size_holder", %"struct.boost::intrusive::detail::default_header_holder" }
%"struct.boost::intrusive::detail::size_holder" = type { i64 }
%"struct.boost::intrusive::detail::default_header_holder" = type { %"struct.boost::intrusive::list_node" }
%"struct.boost::intrusive::list_node" = type { ptr, ptr }

@.str.5 = private unnamed_addr constant [7 x i8] c"[idle=\00", align 1
@.str.6 = private unnamed_addr constant [11 x i8] c", partial=\00", align 1
@.str.7 = private unnamed_addr constant [8 x i8] c", full=\00", align 1
@.str.8 = private unnamed_addr constant [2 x i8] c"]\00", align 1

; Function Attrs: noreturn nounwind uwtable
define linkonce_odr hidden void @__clang_call_terminate(ptr noundef %0) #7 comdat {
  %2 = call ptr @__cxa_begin_catch(ptr %0) #3
  call void @_ZSt9terminatev() #15
  unreachable
}

; Function Attrs: mustprogress nounwind uwtable
define noundef i32 @_ZNK8proxygen11SessionPool18getNumFullSessionsEv(ptr noundef nonnull align 8 dereferenceable(136) %this) #5 align 2 personality ptr @__gxx_personality_v0 {
entry:
  %this.addr.i4 = alloca ptr, align 8
  %this.addr.i2 = alloca ptr, align 8
  %this.addr.i = alloca ptr, align 8
  %this.addr = alloca ptr, align 8
  store ptr %this, ptr %this.addr, align 8
  %this1 = load ptr, ptr %this.addr, align 8
  %fullSessionList_ = getelementptr inbounds %"class.proxygen::SessionPool", ptr %this1, i32 0, i32 7
  store ptr %fullSessionList_, ptr %this.addr.i, align 8
  %this1.i = load ptr, ptr %this.addr.i, align 8
  store ptr %this1.i, ptr %this.addr.i2, align 8
  %this1.i3 = load ptr, ptr %this.addr.i2, align 8
  store ptr %this1.i3, ptr %this.addr.i4, align 8
  %this1.i5 = load ptr, ptr %this.addr.i4, align 8
  %0 = load i64, ptr %this1.i5, align 8
  br label %_ZNK5boost9intrusive9list_implINS0_8mhtraitsIN8proxygen13SessionHolderENS0_16list_member_hookIJNS0_9link_modeILNS0_14link_mode_typeE1EEEEEEXadL_ZNS4_8listHookEEEEEmLb1EvE4sizeEv.exit

terminate.lpad.i:                                 ; No predecessors!
  %1 = landingpad { ptr, i32 }
          catch ptr null
  %2 = extractvalue { ptr, i32 } %1, 0
  call void @__clang_call_terminate(ptr %2) #15
  unreachable

_ZNK5boost9intrusive9list_implINS0_8mhtraitsIN8proxygen13SessionHolderENS0_16list_member_hookIJNS0_9link_modeILNS0_14link_mode_typeE1EEEEEEXadL_ZNS4_8listHookEEEEEmLb1EvE4sizeEv.exit: ; preds = %entry
  %conv = trunc i64 %0 to i32
  ret i32 %conv
}

; Function Attrs: mustprogress nounwind uwtable
define noundef i32 @_ZNK8proxygen11SessionPool27getNumActiveNonFullSessionsEv(ptr noundef nonnull align 8 dereferenceable(136) %this) #5 align 2 personality ptr @__gxx_personality_v0 {
entry:
  %this.addr.i4 = alloca ptr, align 8
  %this.addr.i2 = alloca ptr, align 8
  %this.addr.i = alloca ptr, align 8
  %this.addr = alloca ptr, align 8
  store ptr %this, ptr %this.addr, align 8
  %this1 = load ptr, ptr %this.addr, align 8
  %unfilledSessionList_ = getelementptr inbounds %"class.proxygen::SessionPool", ptr %this1, i32 0, i32 6
  store ptr %unfilledSessionList_, ptr %this.addr.i, align 8
  %this1.i = load ptr, ptr %this.addr.i, align 8
  store ptr %this1.i, ptr %this.addr.i2, align 8
  %this1.i3 = load ptr, ptr %this.addr.i2, align 8
  store ptr %this1.i3, ptr %this.addr.i4, align 8
  %this1.i5 = load ptr, ptr %this.addr.i4, align 8
  %0 = load i64, ptr %this1.i5, align 8
  br label %_ZNK5boost9intrusive9list_implINS0_8mhtraitsIN8proxygen13SessionHolderENS0_16list_member_hookIJNS0_9link_modeILNS0_14link_mode_typeE1EEEEEEXadL_ZNS4_8listHookEEEEEmLb1EvE4sizeEv.exit

terminate.lpad.i:                                 ; No predecessors!
  %1 = landingpad { ptr, i32 }
          catch ptr null
  %2 = extractvalue { ptr, i32 } %1, 0
  call void @__clang_call_terminate(ptr %2) #15
  unreachable

_ZNK5boost9intrusive9list_implINS0_8mhtraitsIN8proxygen13SessionHolderENS0_16list_member_hookIJNS0_9link_modeILNS0_14link_mode_typeE1EEEEEEXadL_ZNS4_8listHookEEEEEmLb1EvE4sizeEv.exit: ; preds = %entry
  %conv = trunc i64 %0 to i32
  ret i32 %conv
}

; Function Attrs: mustprogress nounwind uwtable
define noundef i32 @_ZNK8proxygen11SessionPool18getNumIdleSessionsEv(ptr noundef nonnull align 8 dereferenceable(136) %this) #5 align 2 personality ptr @__gxx_personality_v0 {
entry:
  %this.addr.i4 = alloca ptr, align 8
  %this.addr.i2 = alloca ptr, align 8
  %this.addr.i = alloca ptr, align 8
  %this.addr = alloca ptr, align 8
  store ptr %this, ptr %this.addr, align 8
  %this1 = load ptr, ptr %this.addr, align 8
  %idleSessionList_ = getelementptr inbounds %"class.proxygen::SessionPool", ptr %this1, i32 0, i32 5
  store ptr %idleSessionList_, ptr %this.addr.i, align 8
  %this1.i = load ptr, ptr %this.addr.i, align 8
  store ptr %this1.i, ptr %this.addr.i2, align 8
  %this1.i3 = load ptr, ptr %this.addr.i2, align 8
  store ptr %this1.i3, ptr %this.addr.i4, align 8
  %this1.i5 = load ptr, ptr %this.addr.i4, align 8
  %0 = load i64, ptr %this1.i5, align 8
  br label %_ZNK5boost9intrusive9list_implINS0_8mhtraitsIN8proxygen13SessionHolderENS0_16list_member_hookIJNS0_9link_modeILNS0_14link_mode_typeE1EEEEEEXadL_ZNS4_8listHookEEEEEmLb1EvE4sizeEv.exit

terminate.lpad.i:                                 ; No predecessors!
  %1 = landingpad { ptr, i32 }
          catch ptr null
  %2 = extractvalue { ptr, i32 } %1, 0
  call void @__clang_call_terminate(ptr %2) #15
  unreachable

_ZNK5boost9intrusive9list_implINS0_8mhtraitsIN8proxygen13SessionHolderENS0_16list_member_hookIJNS0_9link_modeILNS0_14link_mode_typeE1EEEEEEXadL_ZNS4_8listHookEEEEEmLb1EvE4sizeEv.exit: ; preds = %entry
  %conv = trunc i64 %0 to i32
  ret i32 %conv
}

; Function Attrs: mustprogress uwtable
define noundef nonnull align 8 dereferenceable(8) ptr @_ZN8proxygenlsERSoRKNS_11SessionPoolE(ptr noundef nonnull align 8 dereferenceable(8) %os, ptr noundef nonnull align 8 dereferenceable(136) %pool) #4 {
entry:
  %os.addr = alloca ptr, align 8
  %pool.addr = alloca ptr, align 8
  store ptr %os, ptr %os.addr, align 8
  store ptr %pool, ptr %pool.addr, align 8
  %0 = load ptr, ptr %os.addr, align 8
  %call = call noundef nonnull align 8 dereferenceable(8) ptr @_ZStlsISt11char_traitsIcEERSt13basic_ostreamIcT_ES5_PKc(ptr noundef nonnull align 8 dereferenceable(8) %0, ptr noundef @.str.5)
  %1 = load ptr, ptr %pool.addr, align 8
  %call1 = call noundef i32 @_ZNK8proxygen11SessionPool18getNumIdleSessionsEv(ptr noundef nonnull align 8 dereferenceable(136) %1)
  %call2 = call noundef nonnull align 8 dereferenceable(8) ptr @_ZNSolsEj(ptr noundef nonnull align 8 dereferenceable(8) %call, i32 noundef %call1)
  %call3 = call noundef nonnull align 8 dereferenceable(8) ptr @_ZStlsISt11char_traitsIcEERSt13basic_ostreamIcT_ES5_PKc(ptr noundef nonnull align 8 dereferenceable(8) %call2, ptr noundef @.str.6)
  %2 = load ptr, ptr %pool.addr, align 8
  %call4 = call noundef i32 @_ZNK8proxygen11SessionPool27getNumActiveNonFullSessionsEv(ptr noundef nonnull align 8 dereferenceable(136) %2)
  %call5 = call noundef nonnull align 8 dereferenceable(8) ptr @_ZNSolsEj(ptr noundef nonnull align 8 dereferenceable(8) %call3, i32 noundef %call4)
  %call6 = call noundef nonnull align 8 dereferenceable(8) ptr @_ZStlsISt11char_traitsIcEERSt13basic_ostreamIcT_ES5_PKc(ptr noundef nonnull align 8 dereferenceable(8) %call5, ptr noundef @.str.7)
  %3 = load ptr, ptr %pool.addr, align 8
  %call7 = call noundef i32 @_ZNK8proxygen11SessionPool18getNumFullSessionsEv(ptr noundef nonnull align 8 dereferenceable(136) %3)
  %call8 = call noundef nonnull align 8 dereferenceable(8) ptr @_ZNSolsEj(ptr noundef nonnull align 8 dereferenceable(8) %call6, i32 noundef %call7)
  %call9 = call noundef nonnull align 8 dereferenceable(8) ptr @_ZStlsISt11char_traitsIcEERSt13basic_ostreamIcT_ES5_PKc(ptr noundef nonnull align 8 dereferenceable(8) %call8, ptr noundef @.str.8)
  %4 = load ptr, ptr %os.addr, align 8
  ret ptr %4
}